target datalayout = "e-m:e-p270:32:32-p271:32:32-p272:64:64-i64:64-i128:128-f80:128-n8:16:32:64-S128"
target triple = "x86_64-pc-linux-gnu"

@_sodium_sc25519_is_canonical.L = internal constant [32 x i8] c"\ED\D3\F5\\\1Ac\12X\D6\9C\F7\A2\DE\F9\DE\14\00\00\00\00\00\00\00\00\00\00\00\00\00\00\00\10", align 16

; Function Attrs: nounwind ssp uwtable
define hidden i32 @_sodium_sc25519_is_canonical(ptr noundef %0) #0 {
  %2 = alloca ptr, align 8
  %3 = alloca i8, align 1
  %4 = alloca i8, align 1
  %5 = alloca i32, align 4
  store ptr %0, ptr %2, align 8
  call void @llvm.lifetime.start.p0(i64 1, ptr %3) #8
  store i8 0, ptr %3, align 1
  call void @llvm.lifetime.start.p0(i64 1, ptr %4) #8
  store i8 1, ptr %4, align 1
  call void @llvm.lifetime.start.p0(i64 4, ptr %5) #8
  store i32 32, ptr %5, align 4
  br label %6

6:                                                ; preds = %47, %1
  %7 = load i32, ptr %5, align 4
  %8 = add i32 %7, -1
  store i32 %8, ptr %5, align 4
  %9 = load ptr, ptr %2, align 8
  %10 = load i32, ptr %5, align 4
  %11 = zext i32 %10 to i64
  %12 = getelementptr i8, ptr %9, i64 %11
  %13 = load i8, ptr %12, align 1
  %14 = zext i8 %13 to i32
  %15 = load i32, ptr %5, align 4
  %16 = zext i32 %15 to i64
  %17 = getelementptr [32 x i8], ptr @_sodium_sc25519_is_canonical.L, i64 0, i64 %16
  %18 = load i8, ptr %17, align 1
  %19 = zext i8 %18 to i32
  %20 = sub i32 %14, %19
  %21 = ashr i32 %20, 8
  %22 = load i8, ptr %4, align 1
  %23 = zext i8 %22 to i32
  %24 = and i32 %21, %23
  %25 = load i8, ptr %3, align 1
  %26 = zext i8 %25 to i32
  %27 = or i32 %26, %24
  %28 = trunc i32 %27 to i8
  store i8 %28, ptr %3, align 1
  %29 = load ptr, ptr %2, align 8
  %30 = load i32, ptr %5, align 4
  %31 = zext i32 %30 to i64
  %32 = getelementptr i8, ptr %29, i64 %31
  %33 = load i8, ptr %32, align 1
  %34 = zext i8 %33 to i32
  %35 = load i32, ptr %5, align 4
  %36 = zext i32 %35 to i64
  %37 = getelementptr [32 x i8], ptr @_sodium_sc25519_is_canonical.L, i64 0, i64 %36
  %38 = load i8, ptr %37, align 1
  %39 = zext i8 %38 to i32
  %40 = xor i32 %34, %39
  %41 = sub i32 %40, 1
  %42 = ashr i32 %41, 8
  %43 = load i8, ptr %4, align 1
  %44 = zext i8 %43 to i32
  %45 = and i32 %44, %42
  %46 = trunc i32 %45 to i8
  store i8 %46, ptr %4, align 1
  br label %47

47:                                               ; preds = %6
  %48 = load i32, ptr %5, align 4
  %49 = icmp ne i32 %48, 0
  br i1 %49, label %6, label %50, !llvm.loop !36

50:                                               ; preds = %47
  %51 = load i8, ptr %3, align 1
  %52 = zext i8 %51 to i32
  %53 = icmp ne i32 %52, 0
  %54 = zext i1 %53 to i32
  call void @llvm.lifetime.end.p0(i64 4, ptr %5) #8
  call void @llvm.lifetime.end.p0(i64 1, ptr %4) #8
  call void @llvm.lifetime.end.p0(i64 1, ptr %3) #8
  ret i32 %54
}