; Function Attrs: nofree norecurse nosync nounwind ssp memory(argmem: read) uwtable
define hidden range(i32 0, 2) i32 @_sodium_sc25519_is_canonical(ptr noundef readonly captures(none) %0) local_unnamed_addr #5 {
  br label %2

2:                                                ; preds = %2, %1
  %indvars.iv = phi i64 [ %indvars.iv.next, %2 ], [ 32, %1 ]
  %.012 = phi i32 [ %12, %2 ], [ 0, %1 ]
  %.011 = phi i32 [ %16, %2 ], [ 1, %1 ]
  %indvars.iv.next = add nsw i64 %indvars.iv, -1
  %3 = getelementptr i8, ptr %0, i64 %indvars.iv.next
  %4 = load i8, ptr %3, align 1
  %5 = zext i8 %4 to i32
  %6 = getelementptr [32 x i8], ptr @_sodium_sc25519_is_canonical.L, i64 0, i64 %indvars.iv.next
  %7 = load i8, ptr %6, align 1
  %8 = zext i8 %7 to i32
  %9 = sub nsw i32 %5, %8
  %10 = ashr i32 %9, 8
  %11 = and i32 %10, %.011
  %12 = or i32 %11, %.012
  %13 = xor i32 %8, %5
  %14 = add nsw i32 %13, -1
  %15 = ashr i32 %14, 8
  %16 = and i32 %15, %.011
  %.not = icmp eq i64 %indvars.iv.next, 0
  br i1 %.not, label %17, label %2, !llvm.loop !38

17:                                               ; preds = %2
  %18 = and i32 %12, 255
  %19 = icmp ne i32 %18, 0
  %20 = zext i1 %19 to i32
  ret i32 %20
}